target datalayout = "e-m:e-p270:32:32-p271:32:32-p272:64:64-i64:64-i128:128-f80:128-n8:16:32:64-S128"
target triple = "x86_64-pc-linux-gnu"

%struct.QPCIAddress = type { i32, i16, i16 }
%struct.QOSGraphEdgeOptions = type { ptr, i32, ptr, ptr, ptr, ptr }

@.str.15 = private unnamed_addr constant [29 x i8] c"fsdev=fsdev0,mount_tag=qtest\00", align 1
@.str.16 = private unnamed_addr constant [39 x i8] c"fsdev=fsdev0,addr=04.0,mount_tag=qtest\00", align 1
@__const.virtio_9p_register_nodes.addr = private unnamed_addr constant %struct.QPCIAddress { i32 32, i16 0, i16 0 }, align 4
@__const.virtio_9p_register_nodes.opts = private unnamed_addr constant { ptr, i32, [4 x i8], ptr, ptr, ptr, ptr } { ptr null, i32 0, [4 x i8] zeroinitializer, ptr null, ptr @.str.17, ptr null, ptr null }, align 8
@.str.18 = private unnamed_addr constant [17 x i8] c"virtio-9p-device\00", align 1
@.str.19 = private unnamed_addr constant [11 x i8] c"virtio-bus\00", align 1
@.str.20 = private unnamed_addr constant [7 x i8] c"virtio\00", align 1
@.str.21 = private unnamed_addr constant [10 x i8] c"virtio-9p\00", align 1
@.str.22 = private unnamed_addr constant [14 x i8] c"virtio-9p-pci\00", align 1
@.str.23 = private unnamed_addr constant [8 x i8] c"pci-bus\00", align 1
@.str.24 = private unnamed_addr constant [11 x i8] c"pci-device\00", align 1

; Function Attrs: nounwind sspstrong uwtable
define internal void @virtio_9p_register_nodes() #0 {
  %1 = alloca ptr, align 8
  %2 = alloca ptr, align 8
  %3 = alloca %struct.QPCIAddress, align 4
  %4 = alloca %struct.QOSGraphEdgeOptions, align 8
  call void @llvm.lifetime.start.p0(i64 8, ptr %1) #14
  store ptr @.str.15, ptr %1, align 8
  call void @llvm.lifetime.start.p0(i64 8, ptr %2) #14
  store ptr @.str.16, ptr %2, align 8
  call void @llvm.lifetime.start.p0(i64 8, ptr %3) #14
  call void @llvm.memcpy.p0.p0.i64(ptr align 4 %3, ptr align 4 @__const.virtio_9p_register_nodes.addr, i64 8, i1 false)
  call void @llvm.lifetime.start.p0(i64 48, ptr %4) #14
  call void @llvm.memcpy.p0.p0.i64(ptr align 8 %4, ptr align 8 @__const.virtio_9p_register_nodes.opts, i64 48, i1 false)
  %5 = load ptr, ptr %1, align 8
  %6 = getelementptr inbounds nuw %struct.QOSGraphEdgeOptions, ptr %4, i32 0, i32 2
  store ptr %5, ptr %6, align 8
  call void @qos_node_create_driver(ptr noundef @.str.18, ptr noundef @virtio_9p_device_create)
  call void @qos_node_consumes(ptr noundef @.str.18, ptr noundef @.str.19, ptr noundef %4)
  call void @qos_node_produces(ptr noundef @.str.18, ptr noundef @.str.20)
  call void @qos_node_produces(ptr noundef @.str.18, ptr noundef @.str.21)
  %7 = load ptr, ptr %2, align 8
  %8 = getelementptr inbounds nuw %struct.QOSGraphEdgeOptions, ptr %4, i32 0, i32 2
  store ptr %7, ptr %8, align 8
  call void @add_qpci_address(ptr noundef %4, ptr noundef %3)
  call void @qos_node_create_driver(ptr noundef @.str.22, ptr noundef @virtio_9p_pci_create)
  call void @qos_node_consumes(ptr noundef @.str.22, ptr noundef @.str.23, ptr noundef %4)
  call void @qos_node_produces(ptr noundef @.str.22, ptr noundef @.str.24)
  call void @qos_node_produces(ptr noundef @.str.22, ptr noundef @.str.20)
  call void @qos_node_produces(ptr noundef @.str.22, ptr noundef @.str.21)
  call void @llvm.lifetime.end.p0(i64 48, ptr %4) #14
  call void @llvm.lifetime.end.p0(i64 8, ptr %3) #14
  call void @llvm.lifetime.end.p0(i64 8, ptr %2) #14
  call void @llvm.lifetime.end.p0(i64 8, ptr %1) #14
  ret void
}