; Function Attrs: nounwind sspstrong uwtable
define internal void @virtio_9p_register_nodes() #0 {
  %1 = alloca %struct.QPCIAddress, align 8
  %2 = alloca %struct.QOSGraphEdgeOptions, align 8
  call void @llvm.lifetime.start.p0(i64 8, ptr nonnull %1) #13
  store i64 32, ptr %1, align 8
  call void @llvm.lifetime.start.p0(i64 48, ptr nonnull %2) #13
  call void @llvm.memcpy.p0.p0.i64(ptr noundef nonnull align 8 dereferenceable(48) %2, ptr noundef nonnull align 8 dereferenceable(48) @__const.virtio_9p_register_nodes.opts, i64 48, i1 false)
  %3 = getelementptr inbounds nuw i8, ptr %2, i64 16
  store ptr @.str.15, ptr %3, align 8
  tail call void @qos_node_create_driver(ptr noundef nonnull @.str.18, ptr noundef nonnull @virtio_9p_device_create) #13
  call void @qos_node_consumes(ptr noundef nonnull @.str.18, ptr noundef nonnull @.str.19, ptr noundef nonnull %2) #13
  call void @qos_node_produces(ptr noundef nonnull @.str.18, ptr noundef nonnull @.str.20) #13
  call void @qos_node_produces(ptr noundef nonnull @.str.18, ptr noundef nonnull @.str.21) #13
  store ptr @.str.16, ptr %3, align 8
  call void @add_qpci_address(ptr noundef nonnull %2, ptr noundef nonnull %1) #13
  call void @qos_node_create_driver(ptr noundef nonnull @.str.22, ptr noundef nonnull @virtio_9p_pci_create) #13
  call void @qos_node_consumes(ptr noundef nonnull @.str.22, ptr noundef nonnull @.str.23, ptr noundef nonnull %2) #13
  call void @qos_node_produces(ptr noundef nonnull @.str.22, ptr noundef nonnull @.str.24) #13
  call void @qos_node_produces(ptr noundef nonnull @.str.22, ptr noundef nonnull @.str.20) #13
  call void @qos_node_produces(ptr noundef nonnull @.str.22, ptr noundef nonnull @.str.21) #13
  call void @llvm.lifetime.end.p0(i64 48, ptr nonnull %2) #13
  call void @llvm.lifetime.end.p0(i64 8, ptr nonnull %1) #13
  ret void
}